target datalayout = "e-m:e-p270:32:32-p271:32:32-p272:64:64-i64:64-i128:128-f80:128-n8:16:32:64-S128"
target triple = "x86_64-pc-linux-gnu"

%struct.H5O_obj_class_t = type { i32, ptr, ptr, ptr, ptr, ptr, ptr, ptr, ptr, ptr }
%struct.H5O_loc_t = type { ptr, i64, i8 }

@.str.4 = private unnamed_addr constant [100 x i8] c"generated/home/dtcxzyw/WorkSpace/Projects/compilers/llvm-opt-benchmark/bench/hdf5/hdf5/src/H5Oint.c\00", align 1
@H5E_OHDR_g = external global i64, align 8
@H5E_CANTGET_g = external global i64, align 8
@H5E_CANTPROTECT_g = external global i64, align 8
@.str.41 = private unnamed_addr constant [29 x i8] c"unable to load object header\00", align 1
@H5E_CANTUNPROTECT_g = external global i64, align 8
@.str.47 = private unnamed_addr constant [32 x i8] c"unable to release object header\00", align 1
@H5E_CANTINIT_g = external global i64, align 8
@.str.58 = private unnamed_addr constant [32 x i8] c"unable to determine object type\00", align 1
@__func__.H5O__obj_class = private unnamed_addr constant [15 x i8] c"H5O__obj_class\00", align 1
@H5O_obj_class_g = internal constant [3 x ptr] [ptr @H5O_OBJ_DATATYPE, ptr @H5O_OBJ_DATASET, ptr @H5O_OBJ_GROUP], align 16
@__func__.H5O__obj_class_real = private unnamed_addr constant [20 x i8] c"H5O__obj_class_real\00", align 1

; Function Attrs: nounwind uwtable
define internal ptr @H5O__obj_class_real(ptr noundef %0) #0 {
  %2 = alloca ptr, align 8
  %3 = alloca i64, align 8
  %4 = alloca ptr, align 8
  %5 = alloca i8, align 1
  %6 = alloca i32, align 4
  store ptr %0, ptr %2, align 8
  store ptr null, ptr %4, align 8
  store i8 0, ptr %5, align 1
  store i64 3, ptr %3, align 8
  br label %7

7:                                                ; preds = %47, %1
  %8 = load i64, ptr %3, align 8
  %9 = icmp ugt i64 %8, 0
  br i1 %9, label %10, label %50

10:                                               ; preds = %7
  %11 = load i64, ptr %3, align 8
  %12 = sub i64 %11, 1
  %13 = getelementptr inbounds [3 x ptr], ptr @H5O_obj_class_g, i64 0, i64 %12
  %14 = load ptr, ptr %13, align 8
  %15 = getelementptr inbounds %struct.H5O_obj_class_t, ptr %14, i32 0, i32 4
  %16 = load ptr, ptr %15, align 8
  %17 = load ptr, ptr %2, align 8
  %18 = call i32 %16(ptr noundef %17)
  store i32 %18, ptr %6, align 4
  %19 = icmp slt i32 %18, 0
  br i1 %19, label %20, label %35

20:                                               ; preds = %10
  br label %21

21:                                               ; preds = %20
  br label %22

22:                                               ; preds = %21
  br label %23

23:                                               ; preds = %22
  %24 = load i64, ptr @H5E_OHDR_g, align 8
  %25 = load i64, ptr @H5E_CANTINIT_g, align 8
  %26 = call i32 (ptr, ptr, i32, i64, i64, ptr, ...) @H5E_printf_stack(ptr noundef @.str.4, ptr noundef @__func__.H5O__obj_class_real, i32 noundef 1689, i64 noundef %24, i64 noundef %25, ptr noundef @.str.58)
  br label %27

27:                                               ; preds = %23
  store i8 1, ptr %5, align 1
  %28 = load i8, ptr %5, align 1
  %29 = trunc i8 %28 to i1
  %30 = zext i1 %29 to i8
  store i8 %30, ptr %5, align 1
  br label %31

31:                                               ; preds = %27
  br label %32

32:                                               ; preds = %31
  store ptr null, ptr %4, align 8
  br label %69

33:                                               ; No predecessors!
  br label %34

34:                                               ; preds = %33
  br label %46

35:                                               ; preds = %10
  %36 = load i32, ptr %6, align 4
  %37 = icmp ne i32 %36, 0
  br i1 %37, label %38, label %45

38:                                               ; preds = %35
  br label %39

39:                                               ; preds = %38
  %40 = load i64, ptr %3, align 8
  %41 = sub i64 %40, 1
  %42 = getelementptr inbounds [3 x ptr], ptr @H5O_obj_class_g, i64 0, i64 %41
  %43 = load ptr, ptr %42, align 8
  store ptr %43, ptr %4, align 8
  br label %69

44:                                               ; No predecessors!
  br label %45

45:                                               ; preds = %44, %35
  br label %46

46:                                               ; preds = %45, %34
  br label %47

47:                                               ; preds = %46
  %48 = load i64, ptr %3, align 8
  %49 = add i64 %48, -1
  store i64 %49, ptr %3, align 8
  br label %7

50:                                               ; preds = %7
  %51 = load i64, ptr %3, align 8
  %52 = icmp eq i64 0, %51
  br i1 %52, label %53, label %68

53:                                               ; preds = %50
  br label %54

54:                                               ; preds = %53
  br label %55

55:                                               ; preds = %54
  br label %56

56:                                               ; preds = %55
  %57 = load i64, ptr @H5E_OHDR_g, align 8
  %58 = load i64, ptr @H5E_CANTINIT_g, align 8
  %59 = call i32 (ptr, ptr, i32, i64, i64, ptr, ...) @H5E_printf_stack(ptr noundef @.str.4, ptr noundef @__func__.H5O__obj_class_real, i32 noundef 1695, i64 noundef %57, i64 noundef %58, ptr noundef @.str.58)
  br label %60

60:                                               ; preds = %56
  store i8 1, ptr %5, align 1
  %61 = load i8, ptr %5, align 1
  %62 = trunc i8 %61 to i1
  %63 = zext i1 %62 to i8
  store i8 %63, ptr %5, align 1
  br label %64

64:                                               ; preds = %60
  br label %65

65:                                               ; preds = %64
  store ptr null, ptr %4, align 8
  br label %69

66:                                               ; No predecessors!
  br label %67

67:                                               ; preds = %66
  br label %68

68:                                               ; preds = %67, %50
  br label %69

69:                                               ; preds = %68, %65, %39, %32
  %70 = load ptr, ptr %4, align 8
  ret ptr %70
}

; Function Attrs: nounwind uwtable
define ptr @H5O__obj_class(ptr noundef %0) #0 {
  %2 = alloca ptr, align 8
  %3 = alloca ptr, align 8
  %4 = alloca ptr, align 8
  %5 = alloca i64, align 8
  %6 = alloca i8, align 1
  store ptr %0, ptr %2, align 8
  store ptr null, ptr %3, align 8
  store ptr null, ptr %4, align 8
  store i64 -1, ptr %5, align 8
  store i8 0, ptr %6, align 1
  %7 = load ptr, ptr %2, align 8
  %8 = getelementptr inbounds %struct.H5O_loc_t, ptr %7, i32 0, i32 1
  %9 = load i64, ptr %8, align 8
  call void @H5AC_tag(i64 noundef %9, ptr noundef %5)
  %10 = load ptr, ptr %2, align 8
  %11 = call ptr @H5O_protect(ptr noundef %10, i32 noundef 128, i1 noundef zeroext false)
  store ptr %11, ptr %3, align 8
  %12 = icmp eq ptr null, %11
  br i1 %12, label %13, label %28

13:                                               ; preds = %1
  br label %14

14:                                               ; preds = %13
  br label %15

15:                                               ; preds = %14
  br label %16

16:                                               ; preds = %15
  %17 = load i64, ptr @H5E_OHDR_g, align 8
  %18 = load i64, ptr @H5E_CANTPROTECT_g, align 8
  %19 = call i32 (ptr, ptr, i32, i64, i64, ptr, ...) @H5E_printf_stack(ptr noundef @.str.4, ptr noundef @__func__.H5O__obj_class, i32 noundef 1649, i64 noundef %17, i64 noundef %18, ptr noundef @.str.41)
  br label %20

20:                                               ; preds = %16
  store i8 1, ptr %6, align 1
  %21 = load i8, ptr %6, align 1
  %22 = trunc i8 %21 to i1
  %23 = zext i1 %22 to i8
  store i8 %23, ptr %6, align 1
  br label %24

24:                                               ; preds = %20
  br label %25

25:                                               ; preds = %24
  store ptr null, ptr %4, align 8
  br label %48

26:                                               ; No predecessors!
  br label %27

27:                                               ; preds = %26
  br label %28

28:                                               ; preds = %27, %1
  %29 = load ptr, ptr %3, align 8
  %30 = call ptr @H5O__obj_class_real(ptr noundef %29)
  store ptr %30, ptr %4, align 8
  %31 = icmp eq ptr null, %30
  br i1 %31, label %32, label %47

32:                                               ; preds = %28
  br label %33

33:                                               ; preds = %32
  br label %34

34:                                               ; preds = %33
  br label %35

35:                                               ; preds = %34
  %36 = load i64, ptr @H5E_OHDR_g, align 8
  %37 = load i64, ptr @H5E_CANTGET_g, align 8
  %38 = call i32 (ptr, ptr, i32, i64, i64, ptr, ...) @H5E_printf_stack(ptr noundef @.str.4, ptr noundef @__func__.H5O__obj_class, i32 noundef 1653, i64 noundef %36, i64 noundef %37, ptr noundef @.str.58)
  br label %39

39:                                               ; preds = %35
  store i8 1, ptr %6, align 1
  %40 = load i8, ptr %6, align 1
  %41 = trunc i8 %40 to i1
  %42 = zext i1 %41 to i8
  store i8 %42, ptr %6, align 1
  br label %43

43:                                               ; preds = %39
  br label %44

44:                                               ; preds = %43
  store ptr null, ptr %4, align 8
  br label %48

45:                                               ; No predecessors!
  br label %46

46:                                               ; preds = %45
  br label %47

47:                                               ; preds = %46, %28
  br label %48

48:                                               ; preds = %47, %44, %25
  %49 = load ptr, ptr %3, align 8
  %50 = icmp ne ptr %49, null
  br i1 %50, label %51, label %69

51:                                               ; preds = %48
  %52 = load ptr, ptr %2, align 8
  %53 = load ptr, ptr %3, align 8
  %54 = call i32 @H5O_unprotect(ptr noundef %52, ptr noundef %53, i32 noundef 0)
  %55 = icmp slt i32 %54, 0
  br i1 %55, label %56, label %69

56:                                               ; preds = %51
  br label %57

57:                                               ; preds = %56
  br label %58

58:                                               ; preds = %57
  br label %59

59:                                               ; preds = %58
  %60 = load i64, ptr @H5E_OHDR_g, align 8
  %61 = load i64, ptr @H5E_CANTUNPROTECT_g, align 8
  %62 = call i32 (ptr, ptr, i32, i64, i64, ptr, ...) @H5E_printf_stack(ptr noundef @.str.4, ptr noundef @__func__.H5O__obj_class, i32 noundef 1657, i64 noundef %60, i64 noundef %61, ptr noundef @.str.47)
  br label %63

63:                                               ; preds = %59
  store i8 1, ptr %6, align 1
  %64 = load i8, ptr %6, align 1
  %65 = trunc i8 %64 to i1
  %66 = zext i1 %65 to i8
  store i8 %66, ptr %6, align 1
  br label %67

67:                                               ; preds = %63
  store ptr null, ptr %4, align 8
  br label %68

68:                                               ; preds = %67
  br label %69

69:                                               ; preds = %68, %51, %48
  %70 = load i64, ptr %5, align 8
  call void @H5AC_tag(i64 noundef %70, ptr noundef null)
  %71 = load ptr, ptr %4, align 8
  ret ptr %71
}