; Function Attrs: nounwind uwtable
define ptr @H5O__obj_class(ptr nocapture noundef readonly %0) local_unnamed_addr #1 {
  %2 = alloca i64, align 8
  store i64 -1, ptr %2, align 8
  %3 = getelementptr inbounds i8, ptr %0, i64 8
  %4 = load i64, ptr %3, align 8
  call void @H5AC_tag(i64 noundef %4, ptr noundef nonnull %2) #11
  %5 = call ptr @H5O_protect(ptr noundef %0, i32 noundef 128, i1 noundef zeroext false)
  %6 = icmp eq ptr %5, null
  br i1 %6, label %H5O__obj_class_real.exit.thread13, label %.preheader

H5O__obj_class_real.exit.thread13:                ; preds = %1
  %7 = load i64, ptr @H5E_OHDR_g, align 8
  %8 = load i64, ptr @H5E_CANTPROTECT_g, align 8
  %9 = call i32 (ptr, ptr, i32, i64, i64, ptr, ...) @H5E_printf_stack(ptr noundef nonnull @.str.4, ptr noundef nonnull @__func__.H5O__obj_class, i32 noundef 1649, i64 noundef %7, i64 noundef %8, ptr noundef nonnull @.str.41) #11
  br label %32

.preheader:                                       ; preds = %1, %18
  %.0.i = phi i64 [ %11, %18 ], [ 3, %1 ]
  %.not.i = icmp eq i64 %.0.i, 0
  br i1 %.not.i, label %19, label %10

10:                                               ; preds = %.preheader
  %11 = add nsw i64 %.0.i, -1
  %12 = getelementptr inbounds [3 x ptr], ptr @H5O_obj_class_g, i64 0, i64 %11
  %13 = load ptr, ptr %12, align 8
  %14 = getelementptr inbounds i8, ptr %13, i64 32
  %15 = load ptr, ptr %14, align 8
  %16 = call i32 %15(ptr noundef nonnull %5) #11
  %17 = icmp slt i32 %16, 0
  br i1 %17, label %19, label %18

18:                                               ; preds = %10
  %.not11.i = icmp eq i32 %16, 0
  br i1 %.not11.i, label %.preheader, label %H5O__obj_class_real.exit

19:                                               ; preds = %.preheader, %10
  %.sink.i = phi i32 [ 1689, %10 ], [ 1695, %.preheader ]
  %20 = load i64, ptr @H5E_OHDR_g, align 8
  %21 = load i64, ptr @H5E_CANTINIT_g, align 8
  %22 = call i32 (ptr, ptr, i32, i64, i64, ptr, ...) @H5E_printf_stack(ptr noundef nonnull @.str.4, ptr noundef nonnull @__func__.H5O__obj_class_real, i32 noundef %.sink.i, i64 noundef %20, i64 noundef %21, ptr noundef nonnull @.str.58) #11
  %23 = load i64, ptr @H5E_OHDR_g, align 8
  %24 = load i64, ptr @H5E_CANTGET_g, align 8
  %25 = call i32 (ptr, ptr, i32, i64, i64, ptr, ...) @H5E_printf_stack(ptr noundef nonnull @.str.4, ptr noundef nonnull @__func__.H5O__obj_class, i32 noundef 1653, i64 noundef %23, i64 noundef %24, ptr noundef nonnull @.str.58) #11
  br label %H5O__obj_class_real.exit

H5O__obj_class_real.exit:                         ; preds = %18, %19
  %.0 = phi ptr [ null, %19 ], [ %13, %18 ]
  %26 = call i32 @H5O_unprotect(ptr noundef %0, ptr noundef nonnull %5, i32 noundef 0)
  %27 = icmp slt i32 %26, 0
  br i1 %27, label %28, label %32

28:                                               ; preds = %H5O__obj_class_real.exit
  %29 = load i64, ptr @H5E_OHDR_g, align 8
  %30 = load i64, ptr @H5E_CANTUNPROTECT_g, align 8
  %31 = call i32 (ptr, ptr, i32, i64, i64, ptr, ...) @H5E_printf_stack(ptr noundef nonnull @.str.4, ptr noundef nonnull @__func__.H5O__obj_class, i32 noundef 1657, i64 noundef %29, i64 noundef %30, ptr noundef nonnull @.str.47) #11
  br label %32

32:                                               ; preds = %H5O__obj_class_real.exit.thread13, %28, %H5O__obj_class_real.exit
  %.1 = phi ptr [ null, %28 ], [ %.0, %H5O__obj_class_real.exit ], [ null, %H5O__obj_class_real.exit.thread13 ]
  %33 = load i64, ptr %2, align 8
  call void @H5AC_tag(i64 noundef %33, ptr noundef null) #11
  ret ptr %.1
}